target datalayout = "e-m:e-p270:32:32-p271:32:32-p272:64:64-i64:64-i128:128-f80:128-n8:16:32:64-S128"
target triple = "x86_64-pc-linux-gnu"

%struct.SDL_VideoDevice = type { ptr, ptr, ptr, ptr, ptr, ptr, ptr, ptr, ptr, ptr, ptr, ptr, ptr, ptr, ptr, ptr, ptr, ptr, ptr, ptr, ptr, ptr, ptr, ptr, ptr, ptr, ptr, ptr, ptr, ptr, ptr, ptr, ptr, ptr, ptr, ptr, ptr, ptr, ptr, ptr, ptr, ptr, ptr, ptr, ptr, ptr, ptr, ptr, ptr, ptr, ptr, ptr, ptr, ptr, ptr, ptr, ptr, ptr, ptr, ptr, ptr, ptr, ptr, ptr, ptr, ptr, ptr, ptr, ptr, ptr, ptr, ptr, ptr, ptr, ptr, ptr, ptr, ptr, ptr, ptr, ptr, ptr, ptr, ptr, ptr, ptr, ptr, ptr, ptr, ptr, ptr, ptr, ptr, ptr, ptr, ptr, ptr, i64, i8, i8, i8, ptr, i32, ptr, %struct.SDL_Rect, ptr, ptr, i32, ptr, ptr, ptr, ptr, i64, ptr, i8, i32, i32, %struct.anon, ptr, ptr, ptr, ptr, ptr, ptr, %struct.SDL_AtomicInt, %struct.SDL_AtomicInt, i8, %struct.anon.0, ptr, ptr, ptr, ptr, ptr }
%struct.SDL_Rect = type { i32, i32, i32, i32 }
%struct.anon = type { i32, i32, i32, i32, i32, i32, i32, i32, i32, i32, i32, i32, i32, i32, i32, i32, i32, i32, i32, i32, i32, i32, i32, i32, i32, i32, i32, i32, i32, [256 x i8], ptr }
%struct.SDL_AtomicInt = type { i32 }
%struct.anon.0 = type { ptr, ptr, i32, [256 x i8], ptr }
%struct.SDL_VideoData = type { ptr, ptr, i32, ptr, i64, i32, ptr, i32, i64, i64, %struct.X11_ClipboardData, %struct.X11_ClipboardData, ptr, i64, %struct.X11_SettingsData, i8, %struct.anon.1, [256 x i32], i8, i8, i8, i64, i8, %struct.SDL_Point, i32, ptr, i32, i8, i32, %struct.anon.2, i8, i64, ptr, ptr, i8, i8, i8 }
%struct.X11_ClipboardData = type { ptr, ptr, ptr, i64, i32 }
%struct.X11_SettingsData = type { ptr }
%struct.anon.1 = type { i64, i64, i64, i64, i64, i64, i64, i64, i64, i64, i64, i64, i64, i64, i64, i64, i64, i64, i64, i64, i64, i64, i64, i64, i64, i64, i64, i64, i64, i64, i64, i64, i64, i64, i64, i64, i64, i64, i64, i64, i64, i64, i64, i64, i64, i64, i64, i64, i64, i64, i64, i64, i64 }
%struct.SDL_Point = type { i32, i32 }
%struct.anon.2 = type { ptr, i32, i32, i32, i16, i32, i32 }
%struct.XWindowAttributes = type { i32, i32, i32, i32, i32, i32, ptr, i64, i32, i32, i32, i32, i64, i64, i32, i64, i32, i32, i64, i64, i64, i32, ptr }
%struct.SDL_Window = type { i32, ptr, ptr, i32, i32, i32, i32, i32, i32, i32, i32, float, float, i32, i32, i64, i64, float, i8, i8, i32, i32, %struct.SDL_Rect, %struct.SDL_Rect, %struct.SDL_Rect, i8, i8, i8, %struct.SDL_DisplayMode, %struct.SDL_DisplayMode, %struct.SDL_HDROutputProperties, float, ptr, i8, i8, i8, i8, i8, i8, i8, i8, i8, i32, i32, i32, i32, %struct.SDL_Rect, i32, i8, %struct.SDL_Rect, i32, %struct.SDL_Rect, ptr, ptr, i32, float, i32, i32, ptr, ptr, ptr, ptr, ptr, ptr, ptr, ptr, ptr }
%struct.SDL_DisplayMode = type { i32, i32, i32, i32, float, float, i32, i32, ptr }
%struct.SDL_HDROutputProperties = type { float, float }
%struct.SDL_DisplayData = type { i32, ptr, i32, i32, i32, i32, i64, i8, i64, [16 x i8] }
%struct.anon.4 = type { ptr, ptr, i32, i32, i32, i32, ptr, i64, i64, i64, i32, ptr, i32, i32, i32, i32, i32, ptr, i32, i32, ptr, ptr, i32, i64, i64, ptr, ptr, ptr, ptr, i32, ptr, ptr, ptr, i32, i32, ptr, i64, i64, i32, i32, ptr, ptr, i32, ptr }
%struct.Screen = type { ptr, ptr, i64, i32, i32, i32, i32, i32, ptr, i32, ptr, ptr, i64, i64, i64, i32, i32, i32, i32, i64 }
%struct.SDL_WindowData = type { ptr, i64, ptr, i64, i8, %struct.XShmSegmentInfo, ptr, ptr, ptr, i8, i32, i32, i32, i32, i8, i8, i8, i64, i32, i64, i8, %struct.SDL_Point, %struct.XConfigureEvent, %struct.XConfigureEvent, ptr, i64, i64, i64, i8, i64, ptr, i8, [4 x i64], %struct.SDL_Rect, i64, %struct._XSyncValue, i8, %struct.SDL_Rect, %struct.SDL_DisplayMode, i32, i32, i8, i8, i8, i8, i8, i8, i8, i8, i32, %struct.XPoint, ptr, ptr, i32, i32, i8 }
%struct.XShmSegmentInfo = type { i64, i32, ptr, i32 }
%struct.XConfigureEvent = type { i32, i64, i32, ptr, i64, i64, i32, i32, i32, i32, i32, i64, i32 }
%struct._XSyncValue = type { i32, i32 }
%struct.XPoint = type { i16, i16 }
%union._XEvent = type { [24 x i64] }
%struct.XAnyEvent = type { i32, i64, i32, ptr, i64 }
%struct.XClientMessageEvent = type { i32, i64, i32, ptr, i64, i64, i32, %union.anon }
%union.anon = type { [5 x i64] }

@X11_XGetWindowAttributes = external global ptr, align 8
@X11_XFlush = external global ptr, align 8
@X11_XSendEvent = external global ptr, align 8

; Function Attrs: nounwind uwtable
define internal zeroext i1 @X11_IsWindowMapped(ptr noundef %0, ptr noundef %1) #0 {
  %3 = alloca i1, align 1
  %4 = alloca ptr, align 8
  %5 = alloca ptr, align 8
  %6 = alloca ptr, align 8
  %7 = alloca ptr, align 8
  %8 = alloca %struct.XWindowAttributes, align 8
  %9 = alloca i32, align 4
  store ptr %0, ptr %4, align 8
  store ptr %1, ptr %5, align 8
  call void @llvm.lifetime.start.p0(i64 8, ptr %6) #7
  %10 = load ptr, ptr %5, align 8
  %11 = getelementptr inbounds nuw %struct.SDL_Window, ptr %10, i32 0, i32 59
  %12 = load ptr, ptr %11, align 8
  store ptr %12, ptr %6, align 8
  call void @llvm.lifetime.start.p0(i64 8, ptr %7) #7
  %13 = load ptr, ptr %4, align 8
  %14 = getelementptr inbounds nuw %struct.SDL_VideoDevice, ptr %13, i32 0, i32 128
  %15 = load ptr, ptr %14, align 8
  store ptr %15, ptr %7, align 8
  call void @llvm.lifetime.start.p0(i64 136, ptr %8) #7
  %16 = load ptr, ptr @X11_XGetWindowAttributes, align 8
  %17 = load ptr, ptr %7, align 8
  %18 = getelementptr inbounds nuw %struct.SDL_VideoData, ptr %17, i32 0, i32 0
  %19 = load ptr, ptr %18, align 8
  %20 = load ptr, ptr %6, align 8
  %21 = getelementptr inbounds nuw %struct.SDL_WindowData, ptr %20, i32 0, i32 1
  %22 = load i64, ptr %21, align 8
  %23 = call i32 %16(ptr noundef %19, i64 noundef %22, ptr noundef %8)
  %24 = getelementptr inbounds nuw %struct.XWindowAttributes, ptr %8, i32 0, i32 17
  %25 = load i32, ptr %24, align 4
  %26 = icmp ne i32 %25, 0
  br i1 %26, label %27, label %28

27:                                               ; preds = %2
  store i1 true, ptr %3, align 1
  store i32 1, ptr %9, align 4
  br label %29

28:                                               ; preds = %2
  store i1 false, ptr %3, align 1
  store i32 1, ptr %9, align 4
  br label %29

29:                                               ; preds = %28, %27
  call void @llvm.lifetime.end.p0(i64 136, ptr %8) #7
  call void @llvm.lifetime.end.p0(i64 8, ptr %7) #7
  call void @llvm.lifetime.end.p0(i64 8, ptr %6) #7
  %30 = load i1, ptr %3, align 1
  ret i1 %30
}

; Function Attrs: nounwind uwtable
define hidden void @X11_SetWindowAlwaysOnTop(ptr noundef %0, ptr noundef %1, i1 noundef zeroext %2) #0 {
  %4 = alloca ptr, align 8
  %5 = alloca ptr, align 8
  %6 = alloca i8, align 1
  %7 = alloca ptr, align 8
  %8 = alloca ptr, align 8
  %9 = alloca ptr, align 8
  %10 = alloca i64, align 8
  %11 = alloca i64, align 8
  %12 = alloca %union._XEvent, align 8
  store ptr %0, ptr %4, align 8
  store ptr %1, ptr %5, align 8
  %13 = zext i1 %2 to i8
  store i8 %13, ptr %6, align 1
  call void @llvm.lifetime.start.p0(i64 8, ptr %7) #7
  %14 = load ptr, ptr %5, align 8
  %15 = getelementptr inbounds nuw %struct.SDL_Window, ptr %14, i32 0, i32 59
  %16 = load ptr, ptr %15, align 8
  store ptr %16, ptr %7, align 8
  call void @llvm.lifetime.start.p0(i64 8, ptr %8) #7
  %17 = load ptr, ptr %5, align 8
  %18 = call ptr @SDL_GetDisplayDriverDataForWindow(ptr noundef %17)
  store ptr %18, ptr %8, align 8
  call void @llvm.lifetime.start.p0(i64 8, ptr %9) #7
  %19 = load ptr, ptr %7, align 8
  %20 = getelementptr inbounds nuw %struct.SDL_WindowData, ptr %19, i32 0, i32 24
  %21 = load ptr, ptr %20, align 8
  %22 = getelementptr inbounds nuw %struct.SDL_VideoData, ptr %21, i32 0, i32 0
  %23 = load ptr, ptr %22, align 8
  store ptr %23, ptr %9, align 8
  call void @llvm.lifetime.start.p0(i64 8, ptr %10) #7
  %24 = load ptr, ptr %7, align 8
  %25 = getelementptr inbounds nuw %struct.SDL_WindowData, ptr %24, i32 0, i32 24
  %26 = load ptr, ptr %25, align 8
  %27 = getelementptr inbounds nuw %struct.SDL_VideoData, ptr %26, i32 0, i32 16
  %28 = getelementptr inbounds nuw %struct.anon.1, ptr %27, i32 0, i32 5
  %29 = load i64, ptr %28, align 8
  store i64 %29, ptr %10, align 8
  call void @llvm.lifetime.start.p0(i64 8, ptr %11) #7
  %30 = load ptr, ptr %7, align 8
  %31 = getelementptr inbounds nuw %struct.SDL_WindowData, ptr %30, i32 0, i32 24
  %32 = load ptr, ptr %31, align 8
  %33 = getelementptr inbounds nuw %struct.SDL_VideoData, ptr %32, i32 0, i32 16
  %34 = getelementptr inbounds nuw %struct.anon.1, ptr %33, i32 0, i32 11
  %35 = load i64, ptr %34, align 8
  store i64 %35, ptr %11, align 8
  %36 = load ptr, ptr %4, align 8
  %37 = load ptr, ptr %5, align 8
  %38 = call zeroext i1 @X11_IsWindowMapped(ptr noundef %36, ptr noundef %37)
  br i1 %38, label %39, label %71

39:                                               ; preds = %3
  call void @llvm.lifetime.start.p0(i64 192, ptr %12) #7
  call void @llvm.memset.p0.i64(ptr align 8 %12, i8 0, i64 192, i1 false)
  %40 = getelementptr inbounds nuw %struct.XAnyEvent, ptr %12, i32 0, i32 0
  store i32 33, ptr %40, align 8
  %41 = load i64, ptr %10, align 8
  %42 = getelementptr inbounds nuw %struct.XClientMessageEvent, ptr %12, i32 0, i32 5
  store i64 %41, ptr %42, align 8
  %43 = getelementptr inbounds nuw %struct.XClientMessageEvent, ptr %12, i32 0, i32 6
  store i32 32, ptr %43, align 8
  %44 = load ptr, ptr %7, align 8
  %45 = getelementptr inbounds nuw %struct.SDL_WindowData, ptr %44, i32 0, i32 1
  %46 = load i64, ptr %45, align 8
  %47 = getelementptr inbounds nuw %struct.XClientMessageEvent, ptr %12, i32 0, i32 4
  store i64 %46, ptr %47, align 8
  %48 = load i8, ptr %6, align 1, !range !5, !noundef !6
  %49 = trunc i8 %48 to i1
  %50 = select i1 %49, i64 1, i64 0
  %51 = getelementptr inbounds nuw %struct.XClientMessageEvent, ptr %12, i32 0, i32 7
  %52 = getelementptr inbounds [5 x i64], ptr %51, i64 0, i64 0
  store i64 %50, ptr %52, align 8
  %53 = load i64, ptr %11, align 8
  %54 = getelementptr inbounds nuw %struct.XClientMessageEvent, ptr %12, i32 0, i32 7
  %55 = getelementptr inbounds [5 x i64], ptr %54, i64 0, i64 1
  store i64 %53, ptr %55, align 8
  %56 = getelementptr inbounds nuw %struct.XClientMessageEvent, ptr %12, i32 0, i32 7
  %57 = getelementptr inbounds [5 x i64], ptr %56, i64 0, i64 3
  store i64 0, ptr %57, align 8
  %58 = load ptr, ptr @X11_XSendEvent, align 8
  %59 = load ptr, ptr %9, align 8
  %60 = load ptr, ptr %9, align 8
  %61 = getelementptr inbounds nuw %struct.anon.4, ptr %60, i32 0, i32 35
  %62 = load ptr, ptr %61, align 8
  %63 = load ptr, ptr %8, align 8
  %64 = getelementptr inbounds nuw %struct.SDL_DisplayData, ptr %63, i32 0, i32 0
  %65 = load i32, ptr %64, align 8
  %66 = sext i32 %65 to i64
  %67 = getelementptr inbounds %struct.Screen, ptr %62, i64 %66
  %68 = getelementptr inbounds nuw %struct.Screen, ptr %67, i32 0, i32 2
  %69 = load i64, ptr %68, align 8
  %70 = call i32 %58(ptr noundef %59, i64 noundef %69, i32 noundef 0, i64 noundef 1572864, ptr noundef %12)
  call void @llvm.lifetime.end.p0(i64 192, ptr %12) #7
  br label %79

71:                                               ; preds = %3
  %72 = load ptr, ptr %4, align 8
  %73 = load ptr, ptr %7, align 8
  %74 = getelementptr inbounds nuw %struct.SDL_WindowData, ptr %73, i32 0, i32 1
  %75 = load i64, ptr %74, align 8
  %76 = load ptr, ptr %5, align 8
  %77 = getelementptr inbounds nuw %struct.SDL_Window, ptr %76, i32 0, i32 15
  %78 = load i64, ptr %77, align 8
  call void @X11_SetNetWMState(ptr noundef %72, i64 noundef %75, i64 noundef %78)
  br label %79

79:                                               ; preds = %71, %39
  %80 = load ptr, ptr @X11_XFlush, align 8
  %81 = load ptr, ptr %9, align 8
  %82 = call i32 %80(ptr noundef %81)
  call void @llvm.lifetime.end.p0(i64 8, ptr %11) #7
  call void @llvm.lifetime.end.p0(i64 8, ptr %10) #7
  call void @llvm.lifetime.end.p0(i64 8, ptr %9) #7
  call void @llvm.lifetime.end.p0(i64 8, ptr %8) #7
  call void @llvm.lifetime.end.p0(i64 8, ptr %7) #7
  ret void
}