; Function Attrs: nounwind uwtable
define hidden void @X11_SetWindowAlwaysOnTop(ptr noundef readonly captures(none) %0, ptr noundef %1, i1 noundef zeroext %2) local_unnamed_addr #0 {
  %4 = alloca %struct.XWindowAttributes, align 8
  %5 = alloca %union._XEvent, align 8
  %6 = getelementptr inbounds nuw i8, ptr %1, i64 392
  %7 = load ptr, ptr %6, align 8
  %8 = tail call ptr @SDL_GetDisplayDriverDataForWindow(ptr noundef %1) #12
  %9 = getelementptr inbounds nuw i8, ptr %7, i64 336
  %10 = load ptr, ptr %9, align 8
  %11 = load ptr, ptr %10, align 8
  %12 = getelementptr inbounds nuw i8, ptr %10, i64 232
  %13 = load i64, ptr %12, align 8
  %14 = getelementptr inbounds nuw i8, ptr %10, i64 280
  %15 = load i64, ptr %14, align 8
  %16 = getelementptr i8, ptr %0, i64 1656
  %.val = load ptr, ptr %16, align 8
  %.val17 = load ptr, ptr %6, align 8
  %.val.val = load ptr, ptr %.val, align 8
  %17 = getelementptr i8, ptr %.val17, i64 8
  %.val17.val = load i64, ptr %17, align 8
  call void @llvm.lifetime.start.p0(i64 136, ptr nonnull %4) #12
  %18 = load ptr, ptr @X11_XGetWindowAttributes, align 8
  %19 = call i32 %18(ptr noundef %.val.val, i64 noundef %.val17.val, ptr noundef nonnull %4) #12
  %20 = getelementptr inbounds nuw i8, ptr %4, i64 92
  %21 = load i32, ptr %20, align 4
  %.not.i.not = icmp eq i32 %21, 0
  call void @llvm.lifetime.end.p0(i64 136, ptr nonnull %4) #12
  br i1 %.not.i.not, label %39, label %22

22:                                               ; preds = %3
  call void @llvm.lifetime.start.p0(i64 192, ptr nonnull %5) #12
  call void @llvm.memset.p0.i64(ptr noundef nonnull align 8 dereferenceable(192) %5, i8 0, i64 192, i1 false)
  store i32 33, ptr %5, align 8
  %23 = getelementptr inbounds nuw i8, ptr %5, i64 40
  store i64 %13, ptr %23, align 8
  %24 = getelementptr inbounds nuw i8, ptr %5, i64 48
  store i32 32, ptr %24, align 8
  %25 = getelementptr inbounds nuw i8, ptr %7, i64 8
  %26 = load i64, ptr %25, align 8
  %27 = getelementptr inbounds nuw i8, ptr %5, i64 32
  store i64 %26, ptr %27, align 8
  %28 = zext i1 %2 to i64
  %29 = getelementptr inbounds nuw i8, ptr %5, i64 56
  store i64 %28, ptr %29, align 8
  %30 = getelementptr inbounds nuw i8, ptr %5, i64 64
  store i64 %15, ptr %30, align 8
  %31 = load ptr, ptr @X11_XSendEvent, align 8
  %32 = getelementptr inbounds nuw i8, ptr %11, i64 232
  %33 = load ptr, ptr %32, align 8
  %34 = load i32, ptr %8, align 8
  %35 = sext i32 %34 to i64
  %36 = getelementptr inbounds %struct.Screen, ptr %33, i64 %35, i32 2
  %37 = load i64, ptr %36, align 8
  %38 = call i32 %31(ptr noundef %11, i64 noundef %37, i32 noundef 0, i64 noundef 1572864, ptr noundef nonnull %5) #12
  call void @llvm.lifetime.end.p0(i64 192, ptr nonnull %5) #12
  br label %44

39:                                               ; preds = %3
  %40 = getelementptr inbounds nuw i8, ptr %7, i64 8
  %41 = load i64, ptr %40, align 8
  %42 = getelementptr inbounds nuw i8, ptr %1, i64 72
  %43 = load i64, ptr %42, align 8
  call void @X11_SetNetWMState(ptr noundef nonnull %0, i64 noundef %41, i64 noundef %43)
  br label %44

44:                                               ; preds = %39, %22
  %45 = load ptr, ptr @X11_XFlush, align 8
  %46 = call i32 %45(ptr noundef %11) #12
  ret void
}